
build/bin/LunaixOS.bin:     file format elf32-i386


Disassembly of section .text:

00100000 <tty_set_theme-0xc>:
  100000:	02 b0 ad 1b 03 00    	add    0x31bad(%eax),%dh
  100006:	00 00                	add    %al,(%eax)
  100008:	fb                   	sti    
  100009:	4f                   	dec    %edi
  10000a:	52                   	push   %edx
  10000b:	e4                 	in     $0x83,%al

0010000c <tty_set_theme>:
  10000c:	83 ec 08             	sub    $0x8,%esp
  10000f:	8b 54 24 0c          	mov    0xc(%esp),%edx
  100013:	8b 44 24 10          	mov    0x10(%esp),%eax
  100017:	66 89 54 24 04       	mov    %dx,0x4(%esp)
  10001c:	66 89 04 24          	mov    %ax,(%esp)
  100020:	0f b7 04 24          	movzwl (%esp),%eax
  100024:	c1 e0 04             	shl    $0x4,%eax
  100027:	89 c2                	mov    %eax,%edx
  100029:	0f b7 44 24 04       	movzwl 0x4(%esp),%eax
  10002e:	09 d0                	or     %edx,%eax
  100030:	c1 e0 08             	shl    $0x8,%eax
  100033:	66 a3 00 10 10 00    	mov    %ax,0x101000
  100039:	90                   	nop
  10003a:	83 c4 08             	add    $0x8,%esp
  10003d:	c3                   	ret    

0010003e <tty_put_char>:
  10003e:	53                   	push   %ebx
  10003f:	83 ec 18             	sub    $0x18,%esp
  100042:	8b 44 24 20          	mov    0x20(%esp),%eax
  100046:	88 44 24 0c          	mov    %al,0xc(%esp)
  10004a:	0f be 44 24 0c       	movsbl 0xc(%esp),%eax
  10004f:	83 f8 0d             	cmp    $0xd,%eax
  100052:	74 3c                	je     100090 <tty_put_char+0x52>
  100054:	83 f8 0d             	cmp    $0xd,%eax
  100057:	7f 43                	jg     10009c <tty_put_char+0x5e>
  100059:	83 f8 09             	cmp    $0x9,%eax
  10005c:	74 07                	je     100065 <tty_put_char+0x27>
  10005e:	83 f8 0a             	cmp    $0xa,%eax
  100061:	74 11                	je     100074 <tty_put_char+0x36>
  100063:	eb 37                	jmp    10009c <tty_put_char+0x5e>
  100065:	a1 04 10 10 00       	mov    0x101004,%eax
  10006a:	83 c0 04             	add    $0x4,%eax
  10006d:	a3 04 10 10 00       	mov    %eax,0x101004
  100072:	eb 73                	jmp    1000e7 <tty_put_char+0xa9>
  100074:	c7 05 04 10 10 00 00 	movl   $0x0,0x101004
  10007b:	00 00 00 
  10007e:	0f b7 05 08 10 10 00 	movzwl 0x101008,%eax
  100085:	83 c0 01             	add    $0x1,%eax
  100088:	66 a3 08 10 10 00    	mov    %ax,0x101008
  10008e:	eb 57                	jmp    1000e7 <tty_put_char+0xa9>
  100090:	c7 05 04 10 10 00 00 	movl   $0x0,0x101004
  100097:	00 00 00 
  10009a:	eb 4b                	jmp    1000e7 <tty_put_char+0xa9>
  10009c:	66 0f be 54 24 0c    	movsbw 0xc(%esp),%dx
  1000a2:	0f b7 05 00 10 10 00 	movzwl 0x101000,%eax
  1000a9:	89 d1                	mov    %edx,%ecx
  1000ab:	09 c1                	or     %eax,%ecx
  1000ad:	8b 1d 00 60 10 00    	mov    0x106000,%ebx
  1000b3:	0f b7 05 08 10 10 00 	movzwl 0x101008,%eax
  1000ba:	0f b7 d0             	movzwl %ax,%edx
  1000bd:	89 d0                	mov    %edx,%eax
  1000bf:	c1 e0 02             	shl    $0x2,%eax
  1000c2:	01 d0                	add    %edx,%eax
  1000c4:	c1 e0 04             	shl    $0x4,%eax
  1000c7:	89 c2                	mov    %eax,%edx
  1000c9:	a1 04 10 10 00       	mov    0x101004,%eax
  1000ce:	01 d0                	add    %edx,%eax
  1000d0:	01 c0                	add    %eax,%eax
  1000d2:	01 d8                	add    %ebx,%eax
  1000d4:	89 ca                	mov    %ecx,%edx
  1000d6:	66 89 10             	mov    %dx,(%eax)
  1000d9:	a1 04 10 10 00       	mov    0x101004,%eax
  1000de:	83 c0 01             	add    $0x1,%eax
  1000e1:	a3 04 10 10 00       	mov    %eax,0x101004
  1000e6:	90                   	nop
  1000e7:	a1 04 10 10 00       	mov    0x101004,%eax
  1000ec:	83 f8 4f             	cmp    $0x4f,%eax
  1000ef:	76 1a                	jbe    10010b <tty_put_char+0xcd>
  1000f1:	c7 05 04 10 10 00 00 	movl   $0x0,0x101004
  1000f8:	00 00 00 
  1000fb:	0f b7 05 08 10 10 00 	movzwl 0x101008,%eax
  100102:	83 c0 01             	add    $0x1,%eax
  100105:	66 a3 08 10 10 00    	mov    %ax,0x101008
  10010b:	0f b7 05 08 10 10 00 	movzwl 0x101008,%eax
  100112:	66 83 f8 18          	cmp    $0x18,%ax
  100116:	76 05                	jbe    10011d <tty_put_char+0xdf>
  100118:	e8 37 00 00 00       	call   100154 <tty_scroll_up>
  10011d:	90                   	nop
  10011e:	83 c4 18             	add    $0x18,%esp
  100121:	5b                   	pop    %ebx
  100122:	c3                   	ret    

00100123 <tty_put_str>:
  100123:	83 ec 0c             	sub    $0xc,%esp
  100126:	eb 1b                	jmp    100143 <tty_put_str+0x20>
  100128:	8b 44 24 10          	mov    0x10(%esp),%eax
  10012c:	0f b6 00             	movzbl (%eax),%eax
  10012f:	0f be c0             	movsbl %al,%eax
  100132:	83 ec 0c             	sub    $0xc,%esp
  100135:	50                   	push   %eax
  100136:	e8 03 ff ff ff       	call   10003e <tty_put_char>
  10013b:	83 c4 10             	add    $0x10,%esp
  10013e:	83 44 24 10 01       	addl   $0x1,0x10(%esp)
  100143:	8b 44 24 10          	mov    0x10(%esp),%eax
  100147:	0f b6 00             	movzbl (%eax),%eax
  10014a:	84 c0                	test   %al,%al
  10014c:	75 da                	jne    100128 <tty_put_str+0x5>
  10014e:	90                   	nop
  10014f:	90                   	nop
  100150:	83 c4 0c             	add    $0xc,%esp
  100153:	c3                   	ret    

00100154 <tty_scroll_up>:
  100154:	83 ec 1c             	sub    $0x1c,%esp
  100157:	c7 44 24 08 80 07 00 	movl   $0x780,0x8(%esp)
  10015e:	00 
  10015f:	a1 00 60 10 00       	mov    0x106000,%eax
  100164:	8d 90 a0 00 00 00    	lea    0xa0(%eax),%edx
  10016a:	a1 00 60 10 00       	mov    0x106000,%eax
  10016f:	83 ec 04             	sub    $0x4,%esp
  100172:	ff 74 24 0c          	push   0xc(%esp)
  100176:	52                   	push   %edx
  100177:	50                   	push   %eax
  100178:	e8 db 03 00 00       	call   100558 <memcpy>
  10017d:	83 c4 10             	add    $0x10,%esp
  100180:	c7 44 24 0c 00 00 00 	movl   $0x0,0xc(%esp)
  100187:	00 
  100188:	eb 23                	jmp    1001ad <tty_scroll_up+0x59>
  10018a:	8b 15 00 60 10 00    	mov    0x106000,%edx
  100190:	8b 4c 24 0c          	mov    0xc(%esp),%ecx
  100194:	8b 44 24 08          	mov    0x8(%esp),%eax
  100198:	01 c8                	add    %ecx,%eax
  10019a:	01 c0                	add    %eax,%eax
  10019c:	01 c2                	add    %eax,%edx
  10019e:	0f b7 05 00 10 10 00 	movzwl 0x101000,%eax
  1001a5:	66 89 02             	mov    %ax,(%edx)
  1001a8:	83 44 24 0c 01       	addl   $0x1,0xc(%esp)
  1001ad:	83 7c 24 0c 4f       	cmpl   $0x4f,0xc(%esp)
  1001b2:	76 d6                	jbe    10018a <tty_scroll_up+0x36>
  1001b4:	0f b7 05 08 10 10 00 	movzwl 0x101008,%eax
  1001bb:	66 85 c0             	test   %ax,%ax
  1001be:	74 0c                	je     1001cc <tty_scroll_up+0x78>
  1001c0:	0f b7 05 08 10 10 00 	movzwl 0x101008,%eax
  1001c7:	83 e8 01             	sub    $0x1,%eax
  1001ca:	eb 05                	jmp    1001d1 <tty_scroll_up+0x7d>
  1001cc:	b8 00 00 00 00       	mov    $0x0,%eax
  1001d1:	66 a3 08 10 10 00    	mov    %ax,0x101008
  1001d7:	90                   	nop
  1001d8:	83 c4 1c             	add    $0x1c,%esp
  1001db:	c3                   	ret    

001001dc <tty_clear>:
  1001dc:	83 ec 10             	sub    $0x10,%esp
  1001df:	c7 44 24 0c 00 00 00 	movl   $0x0,0xc(%esp)
  1001e6:	00 
  1001e7:	eb 1d                	jmp    100206 <tty_clear+0x2a>
  1001e9:	8b 15 00 60 10 00    	mov    0x106000,%edx
  1001ef:	8b 44 24 0c          	mov    0xc(%esp),%eax
  1001f3:	01 c0                	add    %eax,%eax
  1001f5:	01 c2                	add    %eax,%edx
  1001f7:	0f b7 05 00 10 10 00 	movzwl 0x101000,%eax
  1001fe:	66 89 02             	mov    %ax,(%edx)
  100201:	83 44 24 0c 01       	addl   $0x1,0xc(%esp)
  100206:	81 7c 24 0c cf 07 00 	cmpl   $0x7cf,0xc(%esp)
  10020d:	00 
  10020e:	76 d9                	jbe    1001e9 <tty_clear+0xd>
  100210:	c7 05 04 10 10 00 00 	movl   $0x0,0x101004
  100217:	00 00 00 
  10021a:	66 c7 05 08 10 10 00 	movw   $0x0,0x101008
  100221:	00 00 
  100223:	90                   	nop
  100224:	83 c4 10             	add    $0x10,%esp
  100227:	c3                   	ret    

00100228 <isr0>:
  100228:	83 ec 0c             	sub    $0xc,%esp
  10022b:	e8 ac ff ff ff       	call   1001dc <tty_clear>
  100230:	83 ec 0c             	sub    $0xc,%esp
  100233:	68 00 70 10 00       	push   $0x107000
  100238:	e8 e6 fe ff ff       	call   100123 <tty_put_str>
  10023d:	83 c4 10             	add    $0x10,%esp
  100240:	90                   	nop
  100241:	83 c4 0c             	add    $0xc,%esp
  100244:	c3                   	ret    

00100245 <interrupt_handler>:
  100245:	83 ec 0c             	sub    $0xc,%esp
  100248:	8b 44 24 10          	mov    0x10(%esp),%eax
  10024c:	8b 00                	mov    (%eax),%eax
  10024e:	85 c0                	test   %eax,%eax
  100250:	75 10                	jne    100262 <interrupt_handler+0x1d>
  100252:	83 ec 0c             	sub    $0xc,%esp
  100255:	ff 74 24 1c          	push   0x1c(%esp)
  100259:	e8 ca ff ff ff       	call   100228 <isr0>
  10025e:	83 c4 10             	add    $0x10,%esp
  100261:	90                   	nop
  100262:	90                   	nop
  100263:	83 c4 0c             	add    $0xc,%esp
  100266:	c3                   	ret    

00100267 <_kernel_init>:
  100267:	83 ec 0c             	sub    $0xc,%esp
  10026a:	e8 47 01 00 00       	call   1003b6 <_init_gdt>
  10026f:	e8 9e 02 00 00       	call   100512 <_init_idt>
  100274:	90                   	nop
  100275:	83 c4 0c             	add    $0xc,%esp
  100278:	c3                   	ret    

00100279 <_kernel_main>:
  100279:	83 ec 0c             	sub    $0xc,%esp
  10027c:	83 ec 08             	sub    $0x8,%esp
  10027f:	6a 00                	push   $0x0
  100281:	6a 0d                	push   $0xd
  100283:	e8 84 fd ff ff       	call   10000c <tty_set_theme>
  100288:	83 c4 10             	add    $0x10,%esp
  10028b:	83 ec 0c             	sub    $0xc,%esp
  10028e:	68 06 70 10 00       	push   $0x107006
  100293:	e8 8b fe ff ff       	call   100123 <tty_put_str>
  100298:	83 c4 10             	add    $0x10,%esp
  10029b:	90                   	nop
  10029c:	83 c4 0c             	add    $0xc,%esp
  10029f:	c3                   	ret    

001002a0 <start_>:
  1002a0:	bc 10 50 10 00       	mov    $0x105010,%esp
  1002a5:	e8 bd ff ff ff       	call   100267 <_kernel_init>
  1002aa:	83 ec 06             	sub    $0x6,%esp
  1002ad:	c7 44 24 02 20 50 10 	movl   $0x105020,0x2(%esp)
  1002b4:	00 
  1002b5:	66 a1 04 60 10 00    	mov    0x106004,%ax
  1002bb:	66 89 04 24          	mov    %ax,(%esp)
  1002bf:	0f 01 14 24          	lgdtl  (%esp)
  1002c3:	c7 44 24 02 60 50 10 	movl   $0x105060,0x2(%esp)
  1002ca:	00 
  1002cb:	66 a1 06 60 10 00    	mov    0x106006,%ax
  1002d1:	66 89 04 24          	mov    %ax,(%esp)
  1002d5:	0f 01 1c 24          	lidtl  (%esp)
  1002d9:	83 c4 06             	add    $0x6,%esp
  1002dc:	66 b9 10 00          	mov    $0x10,%cx
  1002e0:	8e c1                	mov    %ecx,%es
  1002e2:	8e d9                	mov    %ecx,%ds
  1002e4:	8e e1                	mov    %ecx,%fs
  1002e6:	8e e9                	mov    %ecx,%gs
  1002e8:	8e d1                	mov    %ecx,%ss
  1002ea:	66 6a 08             	pushw  $0x8
  1002ed:	68 f3 02 10 00       	push   $0x1002f3
  1002f2:	cb                   	lret   

001002f3 <_after_gdt>:
  1002f3:	53                   	push   %ebx
  1002f4:	e8 80 ff ff ff       	call   100279 <_kernel_main>
  1002f9:	fa                   	cli    

001002fa <j_>:
  1002fa:	f4                   	hlt    
  1002fb:	eb fd                	jmp    1002fa <j_>

001002fd <_set_gdt_entry>:
  1002fd:	55                   	push   %ebp
  1002fe:	57                   	push   %edi
  1002ff:	56                   	push   %esi
  100300:	53                   	push   %ebx
  100301:	8b 44 24 18          	mov    0x18(%esp),%eax
  100305:	25 00 00 00 ff       	and    $0xff000000,%eax
  10030a:	0b 44 24 20          	or     0x20(%esp),%eax
  10030e:	89 c2                	mov    %eax,%edx
  100310:	8b 44 24 1c          	mov    0x1c(%esp),%eax
  100314:	25 00 00 0f 00       	and    $0xf0000,%eax
  100319:	09 c2                	or     %eax,%edx
  10031b:	8b 44 24 18          	mov    0x18(%esp),%eax
  10031f:	c1 e8 10             	shr    $0x10,%eax
  100322:	0f b6 c0             	movzbl %al,%eax
  100325:	09 d0                	or     %edx,%eax
  100327:	ba 00 00 00 00       	mov    $0x0,%edx
  10032c:	8b 74 24 14          	mov    0x14(%esp),%esi
  100330:	89 04 f5 20 50 10 00 	mov    %eax,0x105020(,%esi,8)
  100337:	89 14 f5 24 50 10 00 	mov    %edx,0x105024(,%esi,8)
  10033e:	8b 44 24 14          	mov    0x14(%esp),%eax
  100342:	8b 14 c5 24 50 10 00 	mov    0x105024(,%eax,8),%edx
  100349:	8b 04 c5 20 50 10 00 	mov    0x105020(,%eax,8),%eax
  100350:	89 c2                	mov    %eax,%edx
  100352:	b8 00 00 00 00       	mov    $0x0,%eax
  100357:	8b 74 24 14          	mov    0x14(%esp),%esi
  10035b:	89 04 f5 20 50 10 00 	mov    %eax,0x105020(,%esi,8)
  100362:	89 14 f5 24 50 10 00 	mov    %edx,0x105024(,%esi,8)
  100369:	8b 44 24 14          	mov    0x14(%esp),%eax
  10036d:	8b 14 c5 24 50 10 00 	mov    0x105024(,%eax,8),%edx
  100374:	8b 04 c5 20 50 10 00 	mov    0x105020(,%eax,8),%eax
  10037b:	8b 74 24 18          	mov    0x18(%esp),%esi
  10037f:	89 f7                	mov    %esi,%edi
  100381:	c1 e7 10             	shl    $0x10,%edi
  100384:	8b 74 24 1c          	mov    0x1c(%esp),%esi
  100388:	0f b7 f6             	movzwl %si,%esi
  10038b:	09 fe                	or     %edi,%esi
  10038d:	bf 00 00 00 00       	mov    $0x0,%edi
  100392:	89 c5                	mov    %eax,%ebp
  100394:	09 f5                	or     %esi,%ebp
  100396:	89 e9                	mov    %ebp,%ecx
  100398:	89 d0                	mov    %edx,%eax
  10039a:	09 f8                	or     %edi,%eax
  10039c:	89 c3                	mov    %eax,%ebx
  10039e:	8b 44 24 14          	mov    0x14(%esp),%eax
  1003a2:	89 0c c5 20 50 10 00 	mov    %ecx,0x105020(,%eax,8)
  1003a9:	89 1c c5 24 50 10 00 	mov    %ebx,0x105024(,%eax,8)
  1003b0:	90                   	nop
  1003b1:	5b                   	pop    %ebx
  1003b2:	5e                   	pop    %esi
  1003b3:	5f                   	pop    %edi
  1003b4:	5d                   	pop    %ebp
  1003b5:	c3                   	ret    

001003b6 <_init_gdt>:
  1003b6:	83 ec 04             	sub    $0x4,%esp
  1003b9:	6a 00                	push   $0x0
  1003bb:	6a 00                	push   $0x0
  1003bd:	6a 00                	push   $0x0
  1003bf:	6a 00                	push   $0x0
  1003c1:	e8 37 ff ff ff       	call   1002fd <_set_gdt_entry>
  1003c6:	83 c4 10             	add    $0x10,%esp
  1003c9:	68 00 9a c0 00       	push   $0xc09a00
  1003ce:	68 ff ff 0f 00       	push   $0xfffff
  1003d3:	6a 00                	push   $0x0
  1003d5:	6a 01                	push   $0x1
  1003d7:	e8 21 ff ff ff       	call   1002fd <_set_gdt_entry>
  1003dc:	83 c4 10             	add    $0x10,%esp
  1003df:	68 00 92 c0 00       	push   $0xc09200
  1003e4:	68 ff ff 0f 00       	push   $0xfffff
  1003e9:	6a 00                	push   $0x0
  1003eb:	6a 02                	push   $0x2
  1003ed:	e8 0b ff ff ff       	call   1002fd <_set_gdt_entry>
  1003f2:	83 c4 10             	add    $0x10,%esp
  1003f5:	68 00 fa c0 00       	push   $0xc0fa00
  1003fa:	68 ff ff 0f 00       	push   $0xfffff
  1003ff:	6a 00                	push   $0x0
  100401:	6a 03                	push   $0x3
  100403:	e8 f5 fe ff ff       	call   1002fd <_set_gdt_entry>
  100408:	83 c4 10             	add    $0x10,%esp
  10040b:	68 00 f2 c0 00       	push   $0xc0f200
  100410:	68 ff ff 0f 00       	push   $0xfffff
  100415:	6a 00                	push   $0x0
  100417:	6a 04                	push   $0x4
  100419:	e8 df fe ff ff       	call   1002fd <_set_gdt_entry>
  10041e:	83 c4 10             	add    $0x10,%esp
  100421:	90                   	nop
  100422:	83 c4 04             	add    $0x4,%esp
  100425:	c3                   	ret    

00100426 <_asm_isr0>:
  100426:	6a 00                	push   $0x0
  100428:	6a 00                	push   $0x0
  10042a:	eb 00                	jmp    10042c <interrupt_wrapper>

0010042c <interrupt_wrapper>:
  10042c:	89 e0                	mov    %esp,%eax
  10042e:	83 e4 f0             	and    $0xfffffff0,%esp
  100431:	83 ec 10             	sub    $0x10,%esp
  100434:	89 04 24             	mov    %eax,(%esp)
  100437:	e8 09 fe ff ff       	call   100245 <interrupt_handler>
  10043c:	58                   	pop    %eax
  10043d:	89 c4                	mov    %eax,%esp
  10043f:	83 c4 08             	add    $0x8,%esp
  100442:	cf                   	iret   

00100443 <_set_idt_entry>:
  100443:	55                   	push   %ebp
  100444:	57                   	push   %edi
  100445:	56                   	push   %esi
  100446:	53                   	push   %ebx
  100447:	83 ec 1c             	sub    $0x1c,%esp
  10044a:	8b 44 24 34          	mov    0x34(%esp),%eax
  10044e:	8b 54 24 3c          	mov    0x3c(%esp),%edx
  100452:	66 89 44 24 04       	mov    %ax,0x4(%esp)
  100457:	89 d0                	mov    %edx,%eax
  100459:	88 04 24             	mov    %al,(%esp)
  10045c:	8b 44 24 38          	mov    0x38(%esp),%eax
  100460:	89 44 24 14          	mov    %eax,0x14(%esp)
  100464:	8b 44 24 14          	mov    0x14(%esp),%eax
  100468:	66 b8 00 00          	mov    $0x0,%ax
  10046c:	89 c2                	mov    %eax,%edx
  10046e:	0f b6 04 24          	movzbl (%esp),%eax
  100472:	c1 e0 0d             	shl    $0xd,%eax
  100475:	25 00 60 00 00       	and    $0x6000,%eax
  10047a:	09 d0                	or     %edx,%eax
  10047c:	80 cc 8e             	or     $0x8e,%ah
  10047f:	ba 00 00 00 00       	mov    $0x0,%edx
  100484:	8b 74 24 30          	mov    0x30(%esp),%esi
  100488:	89 04 f5 60 50 10 00 	mov    %eax,0x105060(,%esi,8)
  10048f:	89 14 f5 64 50 10 00 	mov    %edx,0x105064(,%esi,8)
  100496:	8b 44 24 30          	mov    0x30(%esp),%eax
  10049a:	8b 14 c5 64 50 10 00 	mov    0x105064(,%eax,8),%edx
  1004a1:	8b 04 c5 60 50 10 00 	mov    0x105060(,%eax,8),%eax
  1004a8:	89 c2                	mov    %eax,%edx
  1004aa:	b8 00 00 00 00       	mov    $0x0,%eax
  1004af:	8b 74 24 30          	mov    0x30(%esp),%esi
  1004b3:	89 04 f5 60 50 10 00 	mov    %eax,0x105060(,%esi,8)
  1004ba:	89 14 f5 64 50 10 00 	mov    %edx,0x105064(,%esi,8)
  1004c1:	8b 44 24 30          	mov    0x30(%esp),%eax
  1004c5:	8b 14 c5 64 50 10 00 	mov    0x105064(,%eax,8),%edx
  1004cc:	8b 04 c5 60 50 10 00 	mov    0x105060(,%eax,8),%eax
  1004d3:	0f b7 74 24 04       	movzwl 0x4(%esp),%esi
  1004d8:	c1 e6 10             	shl    $0x10,%esi
  1004db:	89 f7                	mov    %esi,%edi
  1004dd:	8b 74 24 14          	mov    0x14(%esp),%esi
  1004e1:	0f b7 f6             	movzwl %si,%esi
  1004e4:	09 fe                	or     %edi,%esi
  1004e6:	bf 00 00 00 00       	mov    $0x0,%edi
  1004eb:	89 c5                	mov    %eax,%ebp
  1004ed:	09 f5                	or     %esi,%ebp
  1004ef:	89 e9                	mov    %ebp,%ecx
  1004f1:	89 d0                	mov    %edx,%eax
  1004f3:	09 f8                	or     %edi,%eax
  1004f5:	89 c3                	mov    %eax,%ebx
  1004f7:	8b 44 24 30          	mov    0x30(%esp),%eax
  1004fb:	89 0c c5 60 50 10 00 	mov    %ecx,0x105060(,%eax,8)
  100502:	89 1c c5 64 50 10 00 	mov    %ebx,0x105064(,%eax,8)
  100509:	90                   	nop
  10050a:	83 c4 1c             	add    $0x1c,%esp
  10050d:	5b                   	pop    %ebx
  10050e:	5e                   	pop    %esi
  10050f:	5f                   	pop    %edi
  100510:	5d                   	pop    %ebp
  100511:	c3                   	ret    

00100512 <_init_idt>:
  100512:	83 ec 04             	sub    $0x4,%esp
  100515:	6a 00                	push   $0x0
  100517:	68 26 04 10 00       	push   $0x100426
  10051c:	6a 08                	push   $0x8
  10051e:	6a 00                	push   $0x0
  100520:	e8 1e ff ff ff       	call   100443 <_set_idt_entry>
  100525:	83 c4 10             	add    $0x10,%esp
  100528:	90                   	nop
  100529:	83 c4 04             	add    $0x4,%esp
  10052c:	c3                   	ret    

0010052d <strlen>:
  10052d:	83 ec 10             	sub    $0x10,%esp
  100530:	c7 44 24 0c 00 00 00 	movl   $0x0,0xc(%esp)
  100537:	00 
  100538:	eb 05                	jmp    10053f <strlen+0x12>
  10053a:	83 44 24 0c 01       	addl   $0x1,0xc(%esp)
  10053f:	8b 54 24 14          	mov    0x14(%esp),%edx
  100543:	8b 44 24 0c          	mov    0xc(%esp),%eax
  100547:	01 d0                	add    %edx,%eax
  100549:	0f b6 00             	movzbl (%eax),%eax
  10054c:	84 c0                	test   %al,%al
  10054e:	75 ea                	jne    10053a <strlen+0xd>
  100550:	8b 44 24 0c          	mov    0xc(%esp),%eax
  100554:	83 c4 10             	add    $0x10,%esp
  100557:	c3                   	ret    

00100558 <memcpy>:
  100558:	83 ec 10             	sub    $0x10,%esp
  10055b:	8b 44 24 14          	mov    0x14(%esp),%eax
  10055f:	89 44 24 08          	mov    %eax,0x8(%esp)
  100563:	8b 44 24 18          	mov    0x18(%esp),%eax
  100567:	89 44 24 04          	mov    %eax,0x4(%esp)
  10056b:	c7 44 24 0c 00 00 00 	movl   $0x0,0xc(%esp)
  100572:	00 
  100573:	eb 1e                	jmp    100593 <memcpy+0x3b>
  100575:	8b 54 24 04          	mov    0x4(%esp),%edx
  100579:	8b 44 24 0c          	mov    0xc(%esp),%eax
  10057d:	01 d0                	add    %edx,%eax
  10057f:	8b 4c 24 08          	mov    0x8(%esp),%ecx
  100583:	8b 54 24 0c          	mov    0xc(%esp),%edx
  100587:	01 ca                	add    %ecx,%edx
  100589:	0f b6 00             	movzbl (%eax),%eax
  10058c:	88 02                	mov    %al,(%edx)
  10058e:	83 44 24 0c 01       	addl   $0x1,0xc(%esp)
  100593:	8b 44 24 0c          	mov    0xc(%esp),%eax
  100597:	3b 44 24 1c          	cmp    0x1c(%esp),%eax
  10059b:	72 d8                	jb     100575 <memcpy+0x1d>
  10059d:	8b 44 24 14          	mov    0x14(%esp),%eax
  1005a1:	83 c4 10             	add    $0x10,%esp
  1005a4:	c3                   	ret    

001005a5 <memmove>:
  1005a5:	83 ec 10             	sub    $0x10,%esp
  1005a8:	8b 44 24 14          	mov    0x14(%esp),%eax
  1005ac:	89 44 24 04          	mov    %eax,0x4(%esp)
  1005b0:	8b 44 24 18          	mov    0x18(%esp),%eax
  1005b4:	89 04 24             	mov    %eax,(%esp)
  1005b7:	8b 44 24 04          	mov    0x4(%esp),%eax
  1005bb:	3b 04 24             	cmp    (%esp),%eax
  1005be:	73 33                	jae    1005f3 <memmove+0x4e>
  1005c0:	c7 44 24 0c 00 00 00 	movl   $0x0,0xc(%esp)
  1005c7:	00 
  1005c8:	eb 1d                	jmp    1005e7 <memmove+0x42>
  1005ca:	8b 14 24             	mov    (%esp),%edx
  1005cd:	8b 44 24 0c          	mov    0xc(%esp),%eax
  1005d1:	01 d0                	add    %edx,%eax
  1005d3:	8b 4c 24 04          	mov    0x4(%esp),%ecx
  1005d7:	8b 54 24 0c          	mov    0xc(%esp),%edx
  1005db:	01 ca                	add    %ecx,%edx
  1005dd:	0f b6 00             	movzbl (%eax),%eax
  1005e0:	88 02                	mov    %al,(%edx)
  1005e2:	83 44 24 0c 01       	addl   $0x1,0xc(%esp)
  1005e7:	8b 44 24 0c          	mov    0xc(%esp),%eax
  1005eb:	3b 44 24 1c          	cmp    0x1c(%esp),%eax
  1005ef:	72 d9                	jb     1005ca <memmove+0x25>
  1005f1:	eb 34                	jmp    100627 <memmove+0x82>
  1005f3:	8b 44 24 1c          	mov    0x1c(%esp),%eax
  1005f7:	89 44 24 08          	mov    %eax,0x8(%esp)
  1005fb:	eb 23                	jmp    100620 <memmove+0x7b>
  1005fd:	8b 44 24 08          	mov    0x8(%esp),%eax
  100601:	8d 50 ff             	lea    -0x1(%eax),%edx
  100604:	8b 04 24             	mov    (%esp),%eax
  100607:	01 d0                	add    %edx,%eax
  100609:	8b 54 24 08          	mov    0x8(%esp),%edx
  10060d:	8d 4a ff             	lea    -0x1(%edx),%ecx
  100610:	8b 54 24 04          	mov    0x4(%esp),%edx
  100614:	01 ca                	add    %ecx,%edx
  100616:	0f b6 00             	movzbl (%eax),%eax
  100619:	88 02                	mov    %al,(%edx)
  10061b:	83 6c 24 08 01       	subl   $0x1,0x8(%esp)
  100620:	83 7c 24 08 00       	cmpl   $0x0,0x8(%esp)
  100625:	75 d6                	jne    1005fd <memmove+0x58>
  100627:	8b 44 24 14          	mov    0x14(%esp),%eax
  10062b:	83 c4 10             	add    $0x10,%esp
  10062e:	c3                   	ret    

0010062f <memset>:
  10062f:	83 ec 10             	sub    $0x10,%esp
  100632:	8b 44 24 14          	mov    0x14(%esp),%eax
  100636:	89 44 24 08          	mov    %eax,0x8(%esp)
  10063a:	c7 44 24 0c 00 00 00 	movl   $0x0,0xc(%esp)
  100641:	00 
  100642:	eb 15                	jmp    100659 <memset+0x2a>
  100644:	8b 54 24 08          	mov    0x8(%esp),%edx
  100648:	8b 44 24 0c          	mov    0xc(%esp),%eax
  10064c:	01 d0                	add    %edx,%eax
  10064e:	8b 54 24 18          	mov    0x18(%esp),%edx
  100652:	88 10                	mov    %dl,(%eax)
  100654:	83 44 24 0c 01       	addl   $0x1,0xc(%esp)
  100659:	8b 44 24 0c          	mov    0xc(%esp),%eax
  10065d:	3b 44 24 1c          	cmp    0x1c(%esp),%eax
  100661:	72 e1                	jb     100644 <memset+0x15>
  100663:	8b 44 24 14          	mov    0x14(%esp),%eax
  100667:	83 c4 10             	add    $0x10,%esp
  10066a:	c3                   	ret    

0010066b <memcmp>:
  10066b:	83 ec 10             	sub    $0x10,%esp
  10066e:	8b 44 24 14          	mov    0x14(%esp),%eax
  100672:	89 44 24 08          	mov    %eax,0x8(%esp)
  100676:	8b 44 24 18          	mov    0x18(%esp),%eax
  10067a:	89 44 24 04          	mov    %eax,0x4(%esp)
  10067e:	c7 44 24 0c 00 00 00 	movl   $0x0,0xc(%esp)
  100685:	00 
  100686:	eb 35                	jmp    1006bd <memcmp+0x52>
  100688:	8b 54 24 08          	mov    0x8(%esp),%edx
  10068c:	8b 44 24 0c          	mov    0xc(%esp),%eax
  100690:	01 d0                	add    %edx,%eax
  100692:	0f b6 00             	movzbl (%eax),%eax
  100695:	0f b6 c0             	movzbl %al,%eax
  100698:	8b 4c 24 04          	mov    0x4(%esp),%ecx
  10069c:	8b 54 24 0c          	mov    0xc(%esp),%edx
  1006a0:	01 ca                	add    %ecx,%edx
  1006a2:	0f b6 12             	movzbl (%edx),%edx
  1006a5:	0f b6 d2             	movzbl %dl,%edx
  1006a8:	29 d0                	sub    %edx,%eax
  1006aa:	89 04 24             	mov    %eax,(%esp)
  1006ad:	83 3c 24 00          	cmpl   $0x0,(%esp)
  1006b1:	74 05                	je     1006b8 <memcmp+0x4d>
  1006b3:	8b 04 24             	mov    (%esp),%eax
  1006b6:	eb 14                	jmp    1006cc <memcmp+0x61>
  1006b8:	83 44 24 0c 01       	addl   $0x1,0xc(%esp)
  1006bd:	8b 44 24 0c          	mov    0xc(%esp),%eax
  1006c1:	3b 44 24 1c          	cmp    0x1c(%esp),%eax
  1006c5:	72 c1                	jb     100688 <memcmp+0x1d>
  1006c7:	b8 00 00 00 00       	mov    $0x0,%eax
  1006cc:	83 c4 10             	add    $0x10,%esp
  1006cf:	c3                   	ret    
